	.file	"main.c"
	.option nopic
	.attribute arch, "rv32i2p0_m2p0_a2p0_f2p0_c2p0_p0p9_zpn0p9_zpsfoperand0p9_xtheade2p0"
	.attribute unaligned_access, 0
	.attribute stack_align, 16
	.text
.Ltext0:
	.cfi_sections	.debug_frame
	.section	.rodata.main.str1.4,"aMS",@progbits,1
	.align	2
.LC0:
	.string	"i2c0"
	.align	2
.LC1:
	.string	"RTC DISPLAY START\r\n"
	.align	2
.LC2:
	.string	"CITY : HYDERABAD\r\n"
	.align	2
.LC3:
	.string	"Time : %02d:%02d:%02d\r\n"
	.align	2
.LC4:
	.string	"Date : %02d/%02d/20%02d\r\n"
	.align	2
.LC5:
	.string	"----------------------------\r\n"
	.section	.text.startup.main,"ax",@progbits
	.align	1
	.globl	main
	.type	main, @function
main:
.LFB11:
	.file 1 "./examples/peripherals/i2c/rtc/main.c"
	.loc 1 100 1
	.cfi_startproc
	.loc 1 101 5
	.loc 1 100 1 is_stmt 0
	addi	sp,sp,-96
	.cfi_def_cfa_offset 96
	sw	ra,92(sp)
	sw	s0,88(sp)
	sw	s1,84(sp)
	sw	s2,80(sp)
	sw	s3,76(sp)
	sw	s4,72(sp)
	sw	s6,64(sp)
	sw	s7,60(sp)
	sw	s8,56(sp)
	sw	s9,52(sp)
	sw	s5,68(sp)
	.cfi_offset 1, -4
	.cfi_offset 8, -8
	.cfi_offset 9, -12
	.cfi_offset 18, -16
	.cfi_offset 19, -20
	.cfi_offset 20, -24
	.cfi_offset 22, -32
	.cfi_offset 23, -36
	.cfi_offset 24, -40
	.cfi_offset 25, -44
	.cfi_offset 21, -28
	.loc 1 101 5
	call	board_init
.LVL0:
	.loc 1 102 5 is_stmt 1
	call	board_i2c0_gpio_init
.LVL1:
	.loc 1 104 5
	.loc 1 104 12 is_stmt 0
	lui	a0,%hi(.LC0)
	addi	a0,a0,%lo(.LC0)
	call	qcc74x_device_get_by_name
.LVL2:
	.loc 1 104 10
	lui	s6,%hi(.LANCHOR0)
	.loc 1 105 5
	li	a1,98304
	.loc 1 104 10
	addi	s1,s6,%lo(.LANCHOR0)
	.loc 1 105 5
	addi	a1,a1,1696
	.loc 1 104 10
	sw	a0,0(s1)
	.loc 1 105 5 is_stmt 1
	call	qcc74x_i2c_init
.LVL3:
	.loc 1 107 5
	lui	a0,%hi(.LC1)
	addi	a0,a0,%lo(.LC1)
	call	printf
.LVL4:
	.loc 1 110 5
.LBB36:
.LBB37:
	.loc 1 64 5
	.loc 1 66 5
.LBE37:
.LBE36:
	.loc 1 16 5
.LBB50:
.LBB42:
	.loc 1 67 5
.LBE42:
.LBE50:
	.loc 1 16 5
.LBB51:
.LBB43:
	.loc 1 68 5
.LBE43:
.LBE51:
	.loc 1 16 5
.LBB52:
.LBB44:
	.loc 1 69 5
.LBE44:
.LBE52:
	.loc 1 16 5
.LBB53:
.LBB45:
	.loc 1 70 5
.LBE45:
.LBE53:
	.loc 1 16 5
.LBB54:
.LBB46:
	.loc 1 71 5
.LBE46:
.LBE54:
	.loc 1 16 5
.LBB55:
.LBB47:
	.loc 1 72 5
.LBE47:
.LBE55:
	.loc 1 16 5
.LBB56:
.LBB48:
	.loc 1 66 10 is_stmt 0
	li	a5,51781632
	addi	a5,a5,1344
	sw	a5,16(sp)
	.loc 1 70 10
	li	a5,296
	sh	a5,20(sp)
	.loc 1 72 10
	li	a5,38
	sb	a5,22(sp)
	.loc 1 74 5 is_stmt 1
.LVL5:
.LBB38:
.LBB39:
	.loc 1 31 20 is_stmt 0
	addi	a5,sp,14
	.loc 1 27 29
	sw	zero,32(sp)
	.loc 1 31 20
	sw	a5,28(sp)
	.loc 1 32 20
	li	a5,1
	.loc 1 39 5
	lw	a0,0(s1)
	.loc 1 27 29
	sw	zero,36(sp)
	.loc 1 32 20
	sh	a5,32(sp)
	.loc 1 34 18
	li	a5,104
	sh	a5,36(sp)
	.loc 1 29 18
	li	s0,4194304
	.loc 1 36 20
	addi	a5,sp,16
.LVL6:
	.loc 1 27 29
	sw	zero,44(sp)
	.loc 1 36 20
	sw	a5,40(sp)
	.loc 1 29 18
	addi	s0,s0,104
	.loc 1 37 20
	li	a5,7
.LVL7:
	.loc 1 39 5
	li	a2,2
	addi	a1,sp,24
.LBE39:
.LBE38:
.LBE48:
.LBE56:
.LBB57:
.LBB58:
.LBB59:
.LBB60:
	.loc 1 52 18
	li	s7,65536
	sb	zero,14(sp)
.LVL8:
.LBE60:
.LBE59:
.LBE58:
.LBE57:
.LBB97:
.LBB49:
.LBB41:
.LBB40:
	.loc 1 27 5 is_stmt 1
	.loc 1 29 5
	.loc 1 30 5
	.loc 1 29 18 is_stmt 0
	sw	s0,24(sp)
	.loc 1 31 5 is_stmt 1
	.loc 1 32 5
	.loc 1 34 5
	.loc 1 35 5
	.loc 1 36 5
	.loc 1 37 5
	.loc 1 37 20 is_stmt 0
	sh	a5,44(sp)
	.loc 1 39 5 is_stmt 1
	addi	s6,s6,%lo(.LANCHOR0)
	call	qcc74x_i2c_transfer
.LVL9:
.LBE40:
.LBE41:
.LBE49:
.LBE97:
.LBB98:
.LBB95:
.LBB64:
.LBB61:
	.loc 1 49 20 is_stmt 0
	addi	s9,sp,15
	.loc 1 50 20
	li	s8,1
	.loc 1 52 18
	addi	s7,s7,104
.LBE61:
.LBE64:
	.loc 1 84 5
	lui	s4,%hi(.LC2)
	.loc 1 85 5
	lui	s3,%hi(.LC3)
	.loc 1 90 5
	lui	s2,%hi(.LC4)
	.loc 1 95 5
	lui	s1,%hi(.LC5)
.L2:
.LBE95:
.LBE98:
	.loc 1 112 5 is_stmt 1 discriminator 1
	.loc 1 114 9 discriminator 1
.LBB99:
.LBB96:
	.loc 1 80 5 discriminator 1
.LBB65:
.LBB62:
	.loc 1 57 5 is_stmt 0 discriminator 1
	lw	a0,0(s6)
	.loc 1 54 20 discriminator 1
	addi	a5,sp,16
	.loc 1 57 5 discriminator 1
	addi	a1,sp,24
	.loc 1 45 29 discriminator 1
	sw	zero,32(sp)
	sw	zero,44(sp)
	.loc 1 54 20 discriminator 1
	sw	a5,40(sp)
	.loc 1 57 5 discriminator 1
	li	a2,2
	.loc 1 55 20 discriminator 1
	li	a5,7
	sh	a5,44(sp)
.LBE62:
.LBE65:
	.loc 1 80 13 discriminator 1
	sw	zero,16(sp)
	sh	zero,20(sp)
	sb	zero,22(sp)
	.loc 1 82 5 is_stmt 1 discriminator 1
.LVL10:
	sb	zero,15(sp)
.LVL11:
.LBB66:
.LBB63:
	.loc 1 45 5 discriminator 1
	.loc 1 47 5 discriminator 1
	.loc 1 48 5 discriminator 1
	.loc 1 47 18 is_stmt 0 discriminator 1
	sw	s0,24(sp)
	.loc 1 49 5 is_stmt 1 discriminator 1
	.loc 1 49 20 is_stmt 0 discriminator 1
	sw	s9,28(sp)
	.loc 1 50 5 is_stmt 1 discriminator 1
	.loc 1 52 5 discriminator 1
	.loc 1 53 5 discriminator 1
	.loc 1 50 20 is_stmt 0 discriminator 1
	sh	s8,32(sp)
	.loc 1 52 18 discriminator 1
	sw	s7,36(sp)
	.loc 1 54 5 is_stmt 1 discriminator 1
	.loc 1 55 5 discriminator 1
	.loc 1 57 5 discriminator 1
	call	qcc74x_i2c_transfer
.LVL12:
.LBE63:
.LBE66:
	.loc 1 84 5 discriminator 1
	addi	a0,s4,%lo(.LC2)
	call	printf
.LVL13:
	.loc 1 85 5 discriminator 1
	.loc 1 88 24 is_stmt 0 discriminator 1
	lbu	a3,16(sp)
	.loc 1 87 12 discriminator 1
	lbu	a2,17(sp)
	.loc 1 86 24 discriminator 1
	lbu	a1,18(sp)
.LVL14:
.LBB67:
.LBB68:
	.loc 1 21 5 is_stmt 1 discriminator 1
.LBE68:
.LBE67:
.LBB71:
.LBB72:
	.loc 1 21 5 discriminator 1
.LBE72:
.LBE71:
.LBB75:
.LBB76:
	.loc 1 21 5 discriminator 1
	.loc 1 21 30 is_stmt 0 discriminator 1
	li	s5,10
	extu	a5,a3,4+3-1,4
	.loc 1 21 37 discriminator 1
	andi	a3,a3,15
	.loc 1 21 30 discriminator 1
	mula	a3,a5,s5
.LBE76:
.LBE75:
.LBB77:
.LBB73:
	srli	a5,a2,4
	.loc 1 21 37 discriminator 1
	andi	a2,a2,15
.LBE73:
.LBE77:
	.loc 1 85 5 discriminator 1
	addi	a0,s3,%lo(.LC3)
.LBB78:
.LBB74:
	.loc 1 21 30 discriminator 1
	mula	a2,a5,s5
.LBE74:
.LBE78:
.LBB79:
.LBB69:
	extu	a5,a1,4+2-1,4
	.loc 1 21 37 discriminator 1
	andi	a1,a1,15
.LBE69:
.LBE79:
	.loc 1 85 5 discriminator 1
	andi	a3,a3,0xff
.LBB80:
.LBB70:
	.loc 1 21 30 discriminator 1
	mula	a1,a5,s5
.LBE70:
.LBE80:
	.loc 1 85 5 discriminator 1
	andi	a2,a2,0xff
	andi	a1,a1,0xff
	call	printf
.LVL15:
	.loc 1 90 5 is_stmt 1 discriminator 1
	.loc 1 93 12 is_stmt 0 discriminator 1
	lbu	a3,22(sp)
	.loc 1 92 12 discriminator 1
	lbu	a2,21(sp)
	.loc 1 91 12 discriminator 1
	lbu	a1,20(sp)
.LVL16:
.LBB81:
.LBB82:
	.loc 1 21 5 is_stmt 1 discriminator 1
.LBE82:
.LBE81:
.LBB85:
.LBB86:
	.loc 1 21 5 discriminator 1
.LBE86:
.LBE85:
.LBB89:
.LBB90:
	.loc 1 21 5 discriminator 1
	.loc 1 21 30 is_stmt 0 discriminator 1
	srli	a5,a3,4
	.loc 1 21 37 discriminator 1
	andi	a3,a3,15
	.loc 1 21 30 discriminator 1
	mula	a3,a5,s5
.LBE90:
.LBE89:
.LBB91:
.LBB87:
	srli	a5,a2,4
	.loc 1 21 37 discriminator 1
	andi	a2,a2,15
.LBE87:
.LBE91:
	.loc 1 90 5 discriminator 1
	addi	a0,s2,%lo(.LC4)
.LBB92:
.LBB88:
	.loc 1 21 30 discriminator 1
	mula	a2,a5,s5
.LBE88:
.LBE92:
.LBB93:
.LBB83:
	srli	a5,a1,4
	.loc 1 21 37 discriminator 1
	andi	a1,a1,15
.LBE83:
.LBE93:
	.loc 1 90 5 discriminator 1
	andi	a3,a3,0xff
.LBB94:
.LBB84:
	.loc 1 21 30 discriminator 1
	mula	a1,a5,s5
.LBE84:
.LBE94:
	.loc 1 90 5 discriminator 1
	andi	a2,a2,0xff
	andi	a1,a1,0xff
	call	printf
.LVL17:
	.loc 1 95 5 is_stmt 1 discriminator 1
	addi	a0,s1,%lo(.LC5)
	call	printf
.LVL18:
.LBE96:
.LBE99:
	.loc 1 115 9 discriminator 1
	li	a0,1000
	call	qcc74x_mtimer_delay_ms
.LVL19:
	.loc 1 112 11 discriminator 1
	j	.L2
	.cfi_endproc
.LFE11:
	.size	main, .-main
	.section	.bss.i2c0,"aw",@nobits
	.align	2
	.set	.LANCHOR0,. + 0
	.type	i2c0, @object
	.size	i2c0, 4
i2c0:
	.zero	4
	.text
.Letext0:
	.file 2 "./toolchain/linux_x86_64/riscv64-unknown-elf/include/machine/_default_types.h"
	.file 3 "./toolchain/linux_x86_64/riscv64-unknown-elf/include/sys/_stdint.h"
	.file 4 "./drivers/lhal/include/qcc74x_core.h"
	.file 5 "./drivers/lhal/include/qcc74x_i2c.h"
	.file 6 "./toolchain/linux_x86_64/riscv64-unknown-elf/include/stdio.h"
	.file 7 "./bsp/board/qcc74xdk/./board.h"
	.file 8 "./drivers/lhal/include/qcc74x_mtimer.h"