	.file	"main.c"
	.option nopic
	.attribute arch, "rv32i2p0_m2p0_a2p0_f2p0_c2p0_p0p9_zpn0p9_zpsfoperand0p9_xtheade2p0"
	.attribute unaligned_access, 0
	.attribute stack_align, 16
	.text
.Ltext0:
	.cfi_sections	.debug_frame
	.section	.rodata.spi_slave_init.str1.4,"aMS",@progbits,1
	.align	2
.LC1:
	.string	"gpio"
	.align	2
.LC2:
	.string	"spi0"
	.section	.text.spi_slave_init,"ax",@progbits
	.align	1
	.globl	spi_slave_init
	.type	spi_slave_init, @function
spi_slave_init:
.LFB6:
	.file 1 "./examples/peripherals/spi/spi_slave/main.c"
	.loc 1 28 27
	.cfi_startproc
	.loc 1 29 5
	.loc 1 29 12 is_stmt 0
	lui	a0,%hi(.LC1)
	.loc 1 28 27
	addi	sp,sp,-32
	.cfi_def_cfa_offset 32
	.loc 1 29 12
	addi	a0,a0,%lo(.LC1)
	.loc 1 28 27
	sw	ra,28(sp)
	sw	s0,24(sp)
	sw	s1,20(sp)
	.cfi_offset 1, -4
	.cfi_offset 8, -8
	.cfi_offset 9, -12
	.loc 1 29 10
	lui	s0,%hi(.LANCHOR0)
	.loc 1 29 12
	call	qcc74x_device_get_by_name
.LVL0:
	.loc 1 30 5
	li	s1,8192
	.loc 1 29 10
	addi	s0,s0,%lo(.LANCHOR0)
	.loc 1 30 5
	addi	a2,s1,-1279
	li	a1,12
	.loc 1 29 10
	sw	a0,0(s0)
	.loc 1 30 5 is_stmt 1
	call	qcc74x_gpio_init
.LVL1:
	.loc 1 31 5
	lw	a0,0(s0)
	addi	a2,s1,-1279
	li	a1,13
	call	qcc74x_gpio_init
.LVL2:
	.loc 1 32 5
	lw	a0,0(s0)
	addi	a2,s1,-1279
	li	a1,14
	call	qcc74x_gpio_init
.LVL3:
	.loc 1 33 5
	lw	a0,0(s0)
	addi	a2,s1,-1279
	li	a1,15
	call	qcc74x_gpio_init
.LVL4:
	.loc 1 35 5
	.loc 1 35 32 is_stmt 0
	lui	a1,%hi(.LANCHOR1)
	li	a2,12
	addi	a1,a1,%lo(.LANCHOR1)
	addi	a0,sp,4
	call	memcpy
.LVL5:
	.loc 1 40 5 is_stmt 1
	.loc 1 40 12 is_stmt 0
	lui	a0,%hi(.LC2)
	addi	a0,a0,%lo(.LC2)
	call	qcc74x_device_get_by_name
.LVL6:
	.loc 1 40 10
	lui	a5,%hi(.LANCHOR2)
	.loc 1 41 5
	addi	a1,sp,4
	.loc 1 40 10
	sw	a0,%lo(.LANCHOR2)(a5)
	.loc 1 41 5 is_stmt 1
	call	qcc74x_spi_init
.LVL7:
	.loc 1 42 1 is_stmt 0
	lw	ra,28(sp)
	.cfi_restore 1
	lw	s0,24(sp)
	.cfi_restore 8
	lw	s1,20(sp)
	.cfi_restore 9
	addi	sp,sp,32
	.cfi_def_cfa_offset 0
	jr	ra
	.cfi_endproc
.LFE6:
	.size	spi_slave_init, .-spi_slave_init
	.section	.rodata.main.str1.4,"aMS",@progbits,1
	.align	2
.LC3:
	.string	"CLEAN"
	.align	2
.LC4:
	.string	"MODERATE"
	.align	2
.LC5:
	.string	"POOR (SMOG)"
	.align	2
.LC6:
	.string	"uart1"
	.align	2
.LC7:
	.string	"\r\n=== SLAVE READY: HYDERABAD STATION ===\r\n"
	.globl	__extendsfdf2
	.align	2
.LC11:
	.string	"CITY: HYDERABAD | %02d:%02d:%02d | T:%d C H:%d %% | AQI: %.2fV [%s]\r\n"
	.section	.text.startup.main,"ax",@progbits
	.align	1
	.globl	main
	.type	main, @function
main:
.LFB7:
	.loc 1 44 16 is_stmt 1
	.cfi_startproc
	.loc 1 45 5
	.loc 1 44 16 is_stmt 0
	addi	sp,sp,-96
	.cfi_def_cfa_offset 96
	sw	ra,92(sp)
	sw	s1,84(sp)
	fsw	fs0,76(sp)
	fsw	fs1,72(sp)
	fsw	fs2,68(sp)
	sw	s0,88(sp)
	sw	s2,80(sp)
	.cfi_offset 1, -4
	.cfi_offset 9, -12
	.cfi_offset 40, -20
	.cfi_offset 41, -24
	.cfi_offset 50, -28
	.cfi_offset 8, -8
	.cfi_offset 18, -16
	.loc 1 45 5
	call	board_init
.LVL8:
	.loc 1 46 5 is_stmt 1
.LBB5:
.LBB6:
	.loc 1 18 5
	call	board_uartx_gpio_init
.LVL9:
	.loc 1 19 5
	.loc 1 19 20 is_stmt 0
	lui	a0,%hi(.LC6)
	addi	a0,a0,%lo(.LC6)
	call	qcc74x_device_get_by_name
.LVL10:
	.loc 1 20 5 is_stmt 1
	.loc 1 20 33 is_stmt 0
	li	a5,114688
	addi	a5,a5,512
	sw	a5,52(sp)
	li	a5,65536
	addi	a5,a5,768
	.loc 1 25 5
	addi	a1,sp,52
	.loc 1 20 33
	sw	a5,56(sp)
	sw	zero,60(sp)
	.loc 1 25 5 is_stmt 1
	call	qcc74x_uart_init
.LVL11:
.LBE6:
.LBE5:
	.loc 1 47 5
	call	spi_slave_init
.LVL12:
	.loc 1 49 5
	lui	a0,%hi(.LC7)
	addi	a0,a0,%lo(.LC7)
	call	printf
.LVL13:
	.loc 1 51 5
	.loc 1 52 5
.LBB7:
	.loc 1 67 19 is_stmt 0
	lui	a5,%hi(.LC8)
	flw	fs0,%lo(.LC8)(a5)
	.loc 1 71 16
	lui	a5,%hi(.LC9)
	flw	fs1,%lo(.LC9)(a5)
	.loc 1 72 16
	lui	a5,%hi(.LC10)
	flw	fs2,%lo(.LC10)(a5)
	.loc 1 72 42
	lui	s1,%hi(.LC5)
.LBE7:
	.loc 1 52 13
	sw	zero,52(sp)
	sw	zero,56(sp)
.LBB8:
	.loc 1 72 42
	addi	s1,s1,%lo(.LC5)
.L4:
.LBE8:
	.loc 1 54 5 is_stmt 1
	.loc 1 56 9
	lui	s0,%hi(.LANCHOR2)
	addi	s0,s0,%lo(.LANCHOR2)
	lw	a0,0(s0)
	li	a3,8
	addi	a2,sp,44
	addi	a1,sp,52
	call	qcc74x_spi_poll_exchange
.LVL14:
	.loc 1 58 9
	.loc 1 58 12 is_stmt 0
	lbu	a4,44(sp)
	li	a5,170
	bne	a4,a5,.L5
.LBB9:
	.loc 1 59 13 is_stmt 1
	.loc 1 67 38 is_stmt 0
	lhu	a1,50(sp)
	.loc 1 59 21
	lbu	a4,45(sp)
.LVL15:
	.loc 1 60 13 is_stmt 1
	.loc 1 60 21 is_stmt 0
	lbu	a5,46(sp)
.LVL16:
	.loc 1 61 13 is_stmt 1
	.loc 1 67 38 is_stmt 0
	swap8	a1,a1
	extu	a1,a1,15,0
	fcvt.s.w	fa0,a1
	.loc 1 61 21
	lbu	s2,47(sp)
.LVL17:
	.loc 1 62 13 is_stmt 1
	.loc 1 62 21 is_stmt 0
	lbu	a2,48(sp)
.LVL18:
	.loc 1 63 13 is_stmt 1
	.loc 1 67 19 is_stmt 0
	fdiv.s	fa0,fa0,fs0
	.loc 1 63 21
	lbu	a3,49(sp)
.LVL19:
	.loc 1 66 13 is_stmt 1
	.loc 1 67 13
	.loc 1 70 13
	.loc 1 71 13
	.loc 1 71 16 is_stmt 0
	fgt.s	a1,fa0,fs1
	beq	a1,zero,.L14
	.loc 1 71 42
	lui	s0,%hi(.LC4)
	addi	s0,s0,%lo(.LC4)
.L6:
	.loc 1 72 16
	fgt.s	a1,fa0,fs2
	sw	a3,28(sp)
	sw	a2,24(sp)
	sw	a5,20(sp)
	sw	a4,16(sp)
.LVL20:
	.loc 1 72 13 is_stmt 1
	.loc 1 72 42 is_stmt 0
	mvnez	s0, s1, a1
.LVL21:
	.loc 1 74 13 is_stmt 1
	call	__extendsfdf2
.LVL22:
	lw	a5,20(sp)
	lw	a4,16(sp)
	lw	a3,28(sp)
	lw	a2,24(sp)
	mv	a6,a0
	lui	a0,%hi(.LC11)
	mv	a7,a1
	sw	s0,0(sp)
	mv	a1,s2
	addi	a0,a0,%lo(.LC11)
	call	printf
.LVL23:
.LBE9:
	j	.L4
.LVL24:
.L14:
.LBB10:
	.loc 1 70 19 is_stmt 0
	lui	s0,%hi(.LC3)
	addi	s0,s0,%lo(.LC3)
	j	.L6
.LVL25:
.L5:
.LBE10:
	.loc 1 77 13 is_stmt 1
	lw	a0,0(s0)
	li	a2,0
	li	a1,4
	call	qcc74x_spi_feature_control
.LVL26:
	j	.L4
	.cfi_endproc
.LFE7:
	.size	main, .-main
	.section	.rodata.cst4,"aM",@progbits,4
	.align	2
.LC8:
	.word	1148846080
	.align	2
.LC9:
	.word	1065353216
	.align	2
.LC10:
	.word	1075838976
	.section	.rodata
	.align	2
	.set	.LANCHOR1,. + 0
.LC0:
	.word	1000000
	.byte	1
	.byte	3
	.byte	1
	.byte	0
	.byte	0
	.byte	0
	.byte	0
	.zero	1
	.section	.bss.gpio,"aw",@nobits
	.align	2
	.set	.LANCHOR0,. + 0
	.type	gpio, @object
	.size	gpio, 4
gpio:
	.zero	4
	.section	.bss.spi0,"aw",@nobits
	.align	2
	.set	.LANCHOR2,. + 0
	.type	spi0, @object
	.size	spi0, 4
spi0:
	.zero	4
	.text
.Letext0:
	.file 2 "./toolchain/linux_x86_64/riscv64-unknown-elf/include/machine/_default_types.h"
	.file 3 "./toolchain/linux_x86_64/riscv64-unknown-elf/include/sys/_stdint.h"
	.file 4 "./drivers/lhal/include/qcc74x_core.h"
	.file 5 "./drivers/lhal/include/qcc74x_spi.h"
	.file 6 "./drivers/lhal/include/qcc74x_uart.h"
	.file 7 "./toolchain/linux_x86_64/riscv64-unknown-elf/include/stdio.h"
	.file 8 "./bsp/board/qcc74xdk/./board.h"
	.file 9 "./drivers/lhal/include/qcc74x_gpio.h"
	.file 10 "<built-in>"