	.file	"board_flash_psram.c"
	.option nopic
	.attribute arch, "rv32i2p0_m2p0_a2p0_f2p0_c2p0_p0p9_zpn0p9_zpsfoperand0p9_xtheade2p0"
	.attribute unaligned_access, 0
	.attribute stack_align, 16
	.text
.Ltext0:
	.cfi_sections	.debug_frame
	.section	.rodata.qcc74x_show_flashinfo.str1.4,"aMS",@progbits,1
	.align	2
.LC2:
	.string	"======== flash cfg ========\r\n"
	.align	2
.LC3:
	.string	"flash size 0x%08X\r\n"
	.align	2
.LC4:
	.string	"jedec id     0x%06X\r\n"
	.align	2
.LC5:
	.string	"mid              0x%02X\r\n"
	.align	2
.LC6:
	.string	"iomode           0x%02X\r\n"
	.align	2
.LC7:
	.string	"clk delay        0x%02X\r\n"
	.align	2
.LC8:
	.string	"clk invert       0x%02X\r\n"
	.align	2
.LC9:
	.string	"read reg cmd0    0x%02X\r\n"
	.align	2
.LC10:
	.string	"read reg cmd1    0x%02X\r\n"
	.align	2
.LC11:
	.string	"write reg cmd0   0x%02X\r\n"
	.align	2
.LC12:
	.string	"write reg cmd1   0x%02X\r\n"
	.align	2
.LC13:
	.string	"qe write len     0x%02X\r\n"
	.align	2
.LC14:
	.string	"cread support    0x%02X\r\n"
	.align	2
.LC15:
	.string	"cread code       0x%02X\r\n"
	.align	2
.LC16:
	.string	"burst wrap cmd   0x%02X\r\n"
	.align	2
.LC17:
	.string	"===========================\r\n"
	.section	.text.qcc74x_show_flashinfo,"ax",@progbits
	.align	1
	.globl	qcc74x_show_flashinfo
	.type	qcc74x_show_flashinfo, @function
qcc74x_show_flashinfo:
.LFB242:
	.file 1 "./bsp/board/qcc74xdk/board_flash_psram.c"
	.loc 1 17 1
	.cfi_startproc
	.loc 1 18 5
	.loc 1 19 5
	.loc 1 17 1 is_stmt 0
	addi	sp,sp,-112
	.cfi_def_cfa_offset 112
	sw	ra,108(sp)
	sw	s0,104(sp)
	sw	s1,100(sp)
	.cfi_offset 1, -4
	.cfi_offset 8, -8
	.cfi_offset 9, -12
	.loc 1 19 14
	sw	zero,4(sp)
	.loc 1 20 5 is_stmt 1
.LVL0:
	.loc 1 21 5
	.loc 1 21 14 is_stmt 0
	sw	zero,8(sp)
	.loc 1 22 5 is_stmt 1
.LVL1:
	.loc 1 24 5
	.loc 1 24 20 is_stmt 0
	call	qcc74x_flash_get_jedec_id
.LVL2:
	mv	s0,a0
.LVL3:
	.loc 1 25 5 is_stmt 1
	.loc 1 25 17 is_stmt 0
	call	qcc74x_flash_get_size
.LVL4:
	mv	s1,a0
.LVL5:
	.loc 1 26 5 is_stmt 1
	addi	a1,sp,8
	addi	a0,sp,4
	call	qcc74x_flash_get_cfg
.LVL6:
	.loc 1 27 5
	lw	a2,8(sp)
	lw	a1,4(sp)
	addi	a0,sp,12
	call	arch_memcpy
.LVL7:
	.loc 1 28 5
	lui	a0,%hi(.LC2)
	addi	a0,a0,%lo(.LC2)
	call	printf
.LVL8:
	.loc 1 29 5
	lui	a0,%hi(.LC3)
	mv	a1,s1
	addi	a0,a0,%lo(.LC3)
	call	printf
.LVL9:
	.loc 1 30 5
	lui	a0,%hi(.LC4)
	mv	a1,s0
	addi	a0,a0,%lo(.LC4)
	call	printf
.LVL10:
	.loc 1 31 5
	lbu	a1,25(sp)
	lui	a0,%hi(.LC5)
	addi	a0,a0,%lo(.LC5)
	call	printf
.LVL11:
	.loc 1 32 5
	lbu	a1,12(sp)
	lui	a0,%hi(.LC6)
	addi	a0,a0,%lo(.LC6)
	call	printf
.LVL12:
	.loc 1 33 5
	lbu	a1,14(sp)
	lui	a0,%hi(.LC7)
	addi	a0,a0,%lo(.LC7)
	call	printf
.LVL13:
	.loc 1 34 5
	lbu	a1,15(sp)
	lui	a0,%hi(.LC8)
	addi	a0,a0,%lo(.LC8)
	call	printf
.LVL14:
	.loc 1 35 5
	lbu	a1,64(sp)
	lui	a0,%hi(.LC9)
	addi	a0,a0,%lo(.LC9)
	call	printf
.LVL15:
	.loc 1 36 5
	lbu	a1,65(sp)
	lui	a0,%hi(.LC10)
	addi	a0,a0,%lo(.LC10)
	call	printf
.LVL16:
	.loc 1 37 5
	lbu	a1,68(sp)
	lui	a0,%hi(.LC11)
	addi	a0,a0,%lo(.LC11)
	call	printf
.LVL17:
	.loc 1 38 5
	lbu	a1,69(sp)
	lui	a0,%hi(.LC12)
	addi	a0,a0,%lo(.LC12)
	call	printf
.LVL18:
	.loc 1 39 5
	lbu	a1,60(sp)
	lui	a0,%hi(.LC13)
	addi	a0,a0,%lo(.LC13)
	call	printf
.LVL19:
	.loc 1 40 5
	lbu	a1,13(sp)
	lui	a0,%hi(.LC14)
	addi	a0,a0,%lo(.LC14)
	call	printf
.LVL20:
	.loc 1 41 5
	lbu	a1,74(sp)
	lui	a0,%hi(.LC15)
	addi	a0,a0,%lo(.LC15)
	call	printf
.LVL21:
	.loc 1 42 5
	lbu	a1,76(sp)
	lui	a0,%hi(.LC16)
	addi	a0,a0,%lo(.LC16)
	call	printf
.LVL22:
	.loc 1 43 5
	lui	a0,%hi(.LC17)
	addi	a0,a0,%lo(.LC17)
	call	printf
.LVL23:
	.loc 1 44 1 is_stmt 0
	lw	ra,108(sp)
	.cfi_restore 1
	lw	s0,104(sp)
	.cfi_restore 8
.LVL24:
	lw	s1,100(sp)
	.cfi_restore 9
.LVL25:
	addi	sp,sp,112
	.cfi_def_cfa_offset 0
	jr	ra
	.cfi_endproc
.LFE242:
	.size	qcc74x_show_flashinfo, .-qcc74x_show_flashinfo
	.section	.rodata.board_psram_x8_init.str1.4,"aMS",@progbits,1
	.align	2
.LC18:
	.string	"This chip has no psram, please disable CONFIG_PSRAM\r\n"
	.align	2
.LC19:
	.string	"psram already init\r\n"
	.align	2
.LC20:
	.string	"gpio"
	.align	2
.LC21:
	.string	"psram"
	.align	2
.LC22:
	.string	"\r\nPSRAM trim is corrupted\r\n"
	.align	2
.LC23:
	.string	"\r\n!!!!!!PSRAM INIT WITHOUT PSRAM TRIM!!!!!!!!!!!!!!!!!!\r\n"
	.section	.text.board_psram_x8_init,"ax",@progbits
	.align	1
	.globl	board_psram_x8_init
	.type	board_psram_x8_init, @function
board_psram_x8_init:
.LFB245:
	.loc 1 137 1 is_stmt 1
	.cfi_startproc
.LVL26:
	.loc 1 138 5
	.loc 1 139 5
	.loc 1 137 1 is_stmt 0
	addi	sp,sp,-160
	.cfi_def_cfa_offset 160
	sw	s1,148(sp)
	.cfi_offset 9, -12
	mv	s1,a0
	.loc 1 142 5
	addi	a0,sp,92
.LVL27:
	.loc 1 137 1
	sw	ra,156(sp)
	sw	s0,152(sp)
	sw	s2,144(sp)
	sw	s3,140(sp)
	.cfi_offset 1, -4
	.cfi_offset 8, -8
	.cfi_offset 18, -16
	.cfi_offset 19, -20
	.loc 1 139 14
	sh	zero,30(sp)
	.loc 1 142 5 is_stmt 1
	call	qcc74x_efuse_get_device_info
.LVL28:
	.loc 1 143 5
	.loc 1 143 8 is_stmt 0
	lbu	a5,94(sp)
	bne	a5,zero,.L4
	.loc 1 144 9 is_stmt 1
	lui	a0,%hi(.LC18)
	addi	a0,a0,%lo(.LC18)
	call	puts
.LVL29:
.L5:
	.loc 1 145 9 discriminator 1
	.loc 1 145 20 discriminator 1
	.loc 1 145 15 discriminator 1
	j	.L5
.L4:
	.loc 1 149 5
	.loc 1 149 13 is_stmt 0
	li	a5,536875008
	lw	a4,-1688(a5)
	.loc 1 149 70
	andi	a4,a4,1
	.loc 1 149 8
	beq	a4,zero,.L6
	.loc 1 149 83 discriminator 1
	lw	a4,-1684(a5)
	.loc 1 149 140 discriminator 1
	andi	a4,a4,1
	.loc 1 149 78 discriminator 1
	beq	a4,zero,.L6
	.loc 1 149 153 discriminator 2
	lw	a4,-1680(a5)
	.loc 1 149 210 discriminator 2
	andi	a4,a4,1
	.loc 1 149 148 discriminator 2
	beq	a4,zero,.L6
	.loc 1 149 223 discriminator 3
	lw	a4,-1676(a5)
	.loc 1 149 280 discriminator 3
	andi	a4,a4,1
	.loc 1 149 218 discriminator 3
	beq	a4,zero,.L6
	.loc 1 149 293 discriminator 4
	lw	a4,-1672(a5)
	.loc 1 149 350 discriminator 4
	andi	a4,a4,1
	.loc 1 149 288 discriminator 4
	beq	a4,zero,.L6
	.loc 1 149 363 discriminator 5
	lw	a4,-1668(a5)
	.loc 1 149 420 discriminator 5
	andi	a4,a4,1
	.loc 1 149 358 discriminator 5
	beq	a4,zero,.L6
	.loc 1 149 433 discriminator 6
	lw	a4,-1664(a5)
	.loc 1 149 490 discriminator 6
	andi	a4,a4,1
	.loc 1 149 428 discriminator 6
	beq	a4,zero,.L6
	.loc 1 149 503 discriminator 7
	lw	a4,-1660(a5)
	.loc 1 149 560 discriminator 7
	andi	a4,a4,1
	.loc 1 149 498 discriminator 7
	beq	a4,zero,.L6
	.loc 1 149 573 discriminator 8
	lw	a5,-1656(a5)
	.loc 1 149 630 discriminator 8
	andi	a5,a5,1
	.loc 1 149 568 discriminator 8
	beq	a5,zero,.L6
	.loc 1 149 643 discriminator 9
	li	a5,536875008
	lw	a4,-1652(a5)
	.loc 1 149 700 discriminator 9
	andi	a4,a4,1
	.loc 1 149 638 discriminator 9
	beq	a4,zero,.L6
	.loc 1 149 713 discriminator 10
	lw	a4,-1648(a5)
	.loc 1 149 771 discriminator 10
	andi	a4,a4,1
	.loc 1 149 708 discriminator 10
	beq	a4,zero,.L6
	.loc 1 149 784 discriminator 11
	lw	a5,-1644(a5)
	.loc 1 149 842 discriminator 11
	andi	a5,a5,1
	.loc 1 149 779 discriminator 11
	beq	a5,zero,.L6
	.loc 1 150 9 is_stmt 1
	lui	a0,%hi(.LC19)
	addi	a0,a0,%lo(.LC19)
	call	puts
.LVL30:
	.loc 1 151 9
	.loc 1 151 16 is_stmt 0
	li	a0,0
.L3:
	.loc 1 167 1
	lw	ra,156(sp)
	.cfi_remember_state
	.cfi_restore 1
	lw	s0,152(sp)
	.cfi_restore 8
	lw	s1,148(sp)
	.cfi_restore 9
	lw	s2,144(sp)
	.cfi_restore 18
	lw	s3,140(sp)
	.cfi_restore 19
	addi	sp,sp,160
	.cfi_def_cfa_offset 0
	jr	ra
.L6:
	.cfi_restore_state
	.loc 1 155 5 is_stmt 1
	li	a2,0
	li	a1,0
	li	a0,1
	call	GLB_Set_PSRAMB_CLK_Sel
.LVL31:
	.loc 1 157 5
.LBB7:
.LBB8:
	.loc 1 49 5
	.loc 1 51 5
	.loc 1 51 12 is_stmt 0
	lui	a0,%hi(.LC20)
	addi	a0,a0,%lo(.LC20)
.LBB9:
	.loc 1 53 9
	li	s2,4096
.LBE9:
	.loc 1 51 12
	call	qcc74x_device_get_by_name
.LVL32:
	.loc 1 52 5 is_stmt 1
.LBB10:
	.loc 1 52 10
	.loc 1 52 25
.LBE10:
	.loc 1 51 12 is_stmt 0
	li	s0,41
.LBB11:
	.loc 1 53 9
	addi	s2,s2,-2016
	.loc 1 52 5
	li	s3,53
.LVL33:
.L8:
	.loc 1 53 9 is_stmt 1
	mv	a1,s0
	mv	a2,s2
	.loc 1 52 5 is_stmt 0
	addi	s0,s0,1
.LVL34:
	.loc 1 53 9
	sw	a0,12(sp)
	.loc 1 52 5
	andi	s0,s0,0xff
	.loc 1 53 9
	call	qcc74x_gpio_init
.LVL35:
	.loc 1 52 33 is_stmt 1
	.loc 1 52 25
	.loc 1 52 5 is_stmt 0
	lw	a0,12(sp)
	bne	s0,s3,.L8
.LBE11:
.LBE8:
.LBE7:
	.loc 1 160 5 is_stmt 1
.LVL36:
.LBB12:
.LBB13:
	.loc 1 59 5
	.loc 1 60 5
	.loc 1 60 14 is_stmt 0
	addi	s0,sp,60
	lui	a1,%hi(.LANCHOR0)
	li	a2,32
	addi	a1,a1,%lo(.LANCHOR0)
	mv	a0,s0
	call	memcpy
.LVL37:
	.loc 1 78 5 is_stmt 1
	.loc 1 79 5
	.loc 1 79 25 is_stmt 0
	li	a5,1
	sh	a5,40(sp)
	li	a5,3
	sb	a5,42(sp)
	li	a5,65536
	addi	a4,a5,-16
	.loc 1 86 28
	sw	a5,52(sp)
	.loc 1 101 5
	lui	a1,%hi(.LC21)
	.loc 1 86 28
	li	a5,16842752
	addi	a5,a5,261
	.loc 1 79 25
	sw	a4,44(sp)
	.loc 1 86 5 is_stmt 1
	.loc 1 101 5 is_stmt 0
	li	a3,1
	.loc 1 86 28
	li	a4,16777216
	.loc 1 101 5
	addi	a2,sp,32
	addi	a1,a1,%lo(.LC21)
	li	a0,0
	.loc 1 86 28
	sw	a5,56(sp)
	.loc 1 101 5 is_stmt 1
	.loc 1 86 28 is_stmt 0
	sw	a4,48(sp)
	.loc 1 101 5
	call	qcc74x_ef_ctrl_read_common_trim
.LVL38:
	.loc 1 102 5 is_stmt 1
	.loc 1 102 8 is_stmt 0
	lbu	a5,32(sp)
	beq	a5,zero,.L9
	.loc 1 103 9 is_stmt 1
	.loc 1 103 28 is_stmt 0
	lbu	a1,35(sp)
	lw	a0,36(sp)
	.loc 1 103 17
	lbu	s2,33(sp)
	.loc 1 103 28
	call	qcc74x_ef_ctrl_get_trim_parity
.LVL39:
	.loc 1 103 12
	bne	s2,a0,.L10
	.loc 1 104 13 is_stmt 1
	.loc 1 104 31 is_stmt 0
	lw	a4,36(sp)
.LVL40:
	.loc 1 105 13 is_stmt 1
	.loc 1 106 13
	.loc 1 107 13
	.loc 1 104 23 is_stmt 0
	extu	a5,a4,4+4-1,4
	.loc 1 105 24
	andi	a4,a4,15
.LVL41:
	.loc 1 106 33
	add	a5,a5,a4
	.loc 1 106 19
	srai	a5,a5,1
	.loc 1 107 55
	lrhu	a5,s0,a5,1
	sw	a5,44(sp)
.LVL42:
.L11:
	.loc 1 115 5 is_stmt 1
	li	a5,2
	beq	s1,a5,.L12
	li	a5,3
	beq	s1,a5,.L13
	li	a4,1
	bne	s1,a4,.L14
	.loc 1 117 13
	.loc 1 117 41 is_stmt 0
	sb	a5,42(sp)
	.loc 1 118 13 is_stmt 1
	.loc 1 118 47 is_stmt 0
	sb	s1,58(sp)
	.loc 1 119 13 is_stmt 1
.L14:
	.loc 1 131 5
	addi	a1,sp,40
	li	a0,0
	call	PSram_Ctrl_Init
.LVL43:
	.loc 1 133 5
	addi	a2,sp,48
	li	a1,2
	li	a0,0
	call	PSram_Ctrl_Winbond_Write_Reg
.LVL44:
.LBE13:
.LBE12:
	.loc 1 162 5
	addi	a2,sp,30
	li	a1,0
	li	a0,0
	call	PSram_Ctrl_Winbond_Read_Reg
.LVL45:
	.loc 1 164 5
	call	Tzc_Sec_PSRAMB_Access_Release
.LVL46:
	.loc 1 166 5
	.loc 1 166 12 is_stmt 0
	lhu	a0,30(sp)
	j	.L3
.LVL47:
.L10:
.LBB15:
.LBB14:
	.loc 1 109 13 is_stmt 1
	lui	a0,%hi(.LC22)
	addi	a0,a0,%lo(.LC22)
.L53:
	.loc 1 112 9 is_stmt 0
	call	printf
.LVL48:
	j	.L11
.L9:
	.loc 1 112 9 is_stmt 1
	lui	a0,%hi(.LC23)
	addi	a0,a0,%lo(.LC23)
	j	.L53
.LVL49:
.L12:
	.loc 1 121 13
	.loc 1 121 41 is_stmt 0
	li	a5,7
.L54:
	.loc 1 125 41
	sb	a5,42(sp)
	.loc 1 126 13 is_stmt 1
	.loc 1 126 47 is_stmt 0
	sb	zero,58(sp)
	.loc 1 127 13 is_stmt 1
	j	.L14
.L13:
	.loc 1 125 13
	.loc 1 125 41 is_stmt 0
	li	a5,15
	j	.L54
.LBE14:
.LBE15:
	.cfi_endproc
.LFE245:
	.size	board_psram_x8_init, .-board_psram_x8_init
	.section	.rodata
	.align	2
	.set	.LANCHOR0,. + 0
.LC0:
	.half	-32768
	.half	-16384
	.half	-8192
	.half	-4096
	.half	-2048
	.half	-1024
	.half	-512
	.half	-256
	.half	-128
	.half	-64
	.half	-32
	.half	-16
	.half	-8
	.half	-4
	.half	-2
	.half	-1
	.text
.Letext0:
	.file 2 "./toolchain/linux_x86_64/riscv64-unknown-elf/include/machine/_default_types.h"
	.file 3 "./toolchain/linux_x86_64/riscv64-unknown-elf/include/sys/_stdint.h"
	.file 4 "./drivers/lhal/include/qcc74x_core.h"
	.file 5 "./drivers/lhal/src/flash/qcc74x_sflash.h"
	.file 6 "./drivers/lhal/include/qcc74x_ef_ctrl.h"
	.file 7 "./drivers/lhal/include/qcc74x_efuse.h"
	.file 8 "./drivers/soc/qcc743/std/include/qcc743_common.h"
	.file 9 "./drivers/soc/qcc743/std/include/qcc743_psram.h"
	.file 10 "./drivers/lhal/include/qcc74x_gpio.h"
	.file 11 "./toolchain/linux_x86_64/riscv64-unknown-elf/include/stdio.h"
	.file 12 "./drivers/soc/qcc743/std/include/qcc743_glb.h"
	.file 13 "./drivers/soc/qcc743/std/include/qcc743_tzc_sec.h"
	.file 14 "./drivers/lhal/include/qcc74x_flash.h"
	.file 15 "<built-in>"